target datalayout = "e-m:e-p270:32:32-p271:32:32-p272:64:64-i64:64-i128:128-f80:128-n8:16:32:64-S128"
target triple = "x86_64-pc-linux-gnu"

%struct.stat = type { i64, i64, i64, i32, i32, i32, i32, i64, i64, i64, i64, %struct.timespec, %struct.timespec, %struct.timespec, [3 x i64] }
%struct.timespec = type { i64, i64 }

; Function Attrs: nounwind uwtable
define dso_local i32 @calc_shared_perm(i32 noundef %0) #0 {
  %2 = alloca i32, align 4
  %3 = alloca i32, align 4
  store i32 %0, ptr %2, align 4, !tbaa !4
  call void @llvm.lifetime.start.p0(i64 4, ptr %3) #12
  %4 = call i32 @get_shared_repository()
  %5 = icmp slt i32 %4, 0
  br i1 %5, label %6, label %9

6:                                                ; preds = %1
  %7 = call i32 @get_shared_repository()
  %8 = sub nsw i32 0, %7
  store i32 %8, ptr %3, align 4, !tbaa !4
  br label %11

9:                                                ; preds = %1
  %10 = call i32 @get_shared_repository()
  store i32 %10, ptr %3, align 4, !tbaa !4
  br label %11

11:                                               ; preds = %9, %6
  %12 = load i32, ptr %2, align 4, !tbaa !4
  %13 = and i32 %12, 128
  %14 = icmp ne i32 %13, 0
  br i1 %14, label %18, label %15

15:                                               ; preds = %11
  %16 = load i32, ptr %3, align 4, !tbaa !4
  %17 = and i32 %16, -147
  store i32 %17, ptr %3, align 4, !tbaa !4
  br label %18

18:                                               ; preds = %15, %11
  %19 = load i32, ptr %2, align 4, !tbaa !4
  %20 = and i32 %19, 64
  %21 = icmp ne i32 %20, 0
  br i1 %21, label %22, label %28

22:                                               ; preds = %18
  %23 = load i32, ptr %3, align 4, !tbaa !4
  %24 = and i32 %23, 292
  %25 = ashr i32 %24, 2
  %26 = load i32, ptr %3, align 4, !tbaa !4
  %27 = or i32 %26, %25
  store i32 %27, ptr %3, align 4, !tbaa !4
  br label %28

28:                                               ; preds = %22, %18
  %29 = call i32 @get_shared_repository()
  %30 = icmp slt i32 %29, 0
  br i1 %30, label %31, label %36

31:                                               ; preds = %28
  %32 = load i32, ptr %2, align 4, !tbaa !4
  %33 = and i32 %32, -512
  %34 = load i32, ptr %3, align 4, !tbaa !4
  %35 = or i32 %33, %34
  store i32 %35, ptr %2, align 4, !tbaa !4
  br label %40

36:                                               ; preds = %28
  %37 = load i32, ptr %3, align 4, !tbaa !4
  %38 = load i32, ptr %2, align 4, !tbaa !4
  %39 = or i32 %38, %37
  store i32 %39, ptr %2, align 4, !tbaa !4
  br label %40

40:                                               ; preds = %36, %31
  %41 = load i32, ptr %2, align 4, !tbaa !4
  call void @llvm.lifetime.end.p0(i64 4, ptr %3) #12
  ret i32 %41
}

; Function Attrs: nounwind uwtable
define internal i32 @get_st_mode_bits(ptr noundef %0, ptr noundef %1) #0 {
  %3 = alloca i32, align 4
  %4 = alloca ptr, align 8
  %5 = alloca ptr, align 8
  %6 = alloca %struct.stat, align 8
  %7 = alloca i32, align 4
  store ptr %0, ptr %4, align 8, !tbaa !43
  store ptr %1, ptr %5, align 8, !tbaa !90
  call void @llvm.lifetime.start.p0(i64 144, ptr %6) #12
  %8 = load ptr, ptr %4, align 8, !tbaa !43
  %9 = call i32 @lstat64(ptr noundef %8, ptr noundef %6) #12
  %10 = icmp slt i32 %9, 0
  br i1 %10, label %11, label %12

11:                                               ; preds = %2
  store i32 -1, ptr %3, align 4
  store i32 1, ptr %7, align 4
  br label %16

12:                                               ; preds = %2
  %13 = getelementptr inbounds nuw %struct.stat, ptr %6, i32 0, i32 3
  %14 = load i32, ptr %13, align 8, !tbaa !86
  %15 = load ptr, ptr %5, align 8, !tbaa !90
  store i32 %14, ptr %15, align 4, !tbaa !4
  store i32 0, ptr %3, align 4
  store i32 1, ptr %7, align 4
  br label %16

16:                                               ; preds = %12, %11
  call void @llvm.lifetime.end.p0(i64 144, ptr %6) #12
  %17 = load i32, ptr %3, align 4
  ret i32 %17
}

; Function Attrs: nounwind uwtable
define dso_local i32 @adjust_shared_perm(ptr noundef %0) #0 {
  %2 = alloca i32, align 4
  %3 = alloca ptr, align 8
  %4 = alloca i32, align 4
  %5 = alloca i32, align 4
  %6 = alloca i32, align 4
  store ptr %0, ptr %3, align 8, !tbaa !43
  call void @llvm.lifetime.start.p0(i64 4, ptr %4) #12
  call void @llvm.lifetime.start.p0(i64 4, ptr %5) #12
  %7 = call i32 @get_shared_repository()
  %8 = icmp ne i32 %7, 0
  br i1 %8, label %10, label %9

9:                                                ; preds = %1
  store i32 0, ptr %2, align 4
  store i32 1, ptr %6, align 4
  br label %48

10:                                               ; preds = %1
  %11 = load ptr, ptr %3, align 8, !tbaa !43
  %12 = call i32 @get_st_mode_bits(ptr noundef %11, ptr noundef %4)
  %13 = icmp slt i32 %12, 0
  br i1 %13, label %14, label %15

14:                                               ; preds = %10
  store i32 -1, ptr %2, align 4
  store i32 1, ptr %6, align 4
  br label %48

15:                                               ; preds = %10
  %16 = load i32, ptr %4, align 4, !tbaa !4
  %17 = call i32 @calc_shared_perm(i32 noundef %16)
  store i32 %17, ptr %5, align 4, !tbaa !4
  %18 = load i32, ptr %4, align 4, !tbaa !4
  %19 = and i32 %18, 61440
  %20 = icmp eq i32 %19, 16384
  br i1 %20, label %21, label %34

21:                                               ; preds = %15
  %22 = load i32, ptr %5, align 4, !tbaa !4
  %23 = and i32 %22, 292
  %24 = ashr i32 %23, 2
  %25 = load i32, ptr %5, align 4, !tbaa !4
  %26 = or i32 %25, %24
  store i32 %26, ptr %5, align 4, !tbaa !4
  %27 = load i32, ptr %5, align 4, !tbaa !4
  %28 = and i32 %27, 48
  %29 = icmp ne i32 %28, 0
  br i1 %29, label %30, label %33

30:                                               ; preds = %21
  %31 = load i32, ptr %5, align 4, !tbaa !4
  %32 = or i32 %31, 1024
  store i32 %32, ptr %5, align 4, !tbaa !4
  br label %33

33:                                               ; preds = %30, %21
  br label %34

34:                                               ; preds = %33, %15
  %35 = load i32, ptr %4, align 4, !tbaa !4
  %36 = load i32, ptr %5, align 4, !tbaa !4
  %37 = xor i32 %35, %36
  %38 = and i32 %37, -61441
  %39 = icmp ne i32 %38, 0
  br i1 %39, label %40, label %47

40:                                               ; preds = %34
  %41 = load ptr, ptr %3, align 8, !tbaa !43
  %42 = load i32, ptr %5, align 4, !tbaa !4
  %43 = and i32 %42, -61441
  %44 = call i32 @chmod(ptr noundef %41, i32 noundef %43) #12
  %45 = icmp slt i32 %44, 0
  br i1 %45, label %46, label %47

46:                                               ; preds = %40
  store i32 -2, ptr %2, align 4
  store i32 1, ptr %6, align 4
  br label %48

47:                                               ; preds = %40, %34
  store i32 0, ptr %2, align 4
  store i32 1, ptr %6, align 4
  br label %48

48:                                               ; preds = %47, %46, %14, %9
  call void @llvm.lifetime.end.p0(i64 4, ptr %5) #12
  call void @llvm.lifetime.end.p0(i64 4, ptr %4) #12
  %49 = load i32, ptr %2, align 4
  ret i32 %49
}