; Function Attrs: nounwind uwtable
define dso_local range(i32 -2, 1) i32 @adjust_shared_perm(ptr noundef readonly captures(none) %0) local_unnamed_addr #3 {
  %2 = alloca %struct.stat, align 8
  %3 = tail call i32 @get_shared_repository() #29
  %.not = icmp eq i32 %3, 0
  br i1 %.not, label %40, label %4

4:                                                ; preds = %1
  call void @llvm.lifetime.start.p0(i64 144, ptr nonnull %2) #29
  %5 = call i32 @lstat64(ptr noundef readonly %0, ptr noundef nonnull %2) #29
  %6 = icmp slt i32 %5, 0
  br i1 %6, label %get_st_mode_bits.exit.thread, label %7

get_st_mode_bits.exit.thread:                     ; preds = %4
  call void @llvm.lifetime.end.p0(i64 144, ptr nonnull %2) #29
  br label %40

7:                                                ; preds = %4
  %8 = getelementptr inbounds nuw i8, ptr %2, i64 24
  %9 = load i32, ptr %8, align 8, !tbaa !73
  call void @llvm.lifetime.end.p0(i64 144, ptr nonnull %2) #29
  %10 = tail call i32 @get_shared_repository() #29
  %11 = icmp slt i32 %10, 0
  %12 = tail call i32 @get_shared_repository() #29
  %13 = sub nsw i32 0, %12
  %.0.i11 = select i1 %11, i32 %13, i32 %12
  %14 = and i32 %9, 128
  %.not.i = icmp eq i32 %14, 0
  %15 = and i32 %.0.i11, -147
  %spec.select.i = select i1 %.not.i, i32 %15, i32 %.0.i11
  %16 = and i32 %9, 64
  %.not11.i = icmp eq i32 %16, 0
  %17 = lshr i32 %spec.select.i, 2
  %18 = and i32 %17, 73
  %19 = select i1 %.not11.i, i32 0, i32 %18
  %20 = tail call i32 @get_shared_repository() #29
  %21 = icmp slt i32 %20, 0
  %22 = and i32 %9, -512
  %.pn.i = select i1 %21, i32 %22, i32 %9
  %23 = or i32 %.pn.i, %19
  %.010.i = or i32 %23, %spec.select.i
  %24 = and i32 %9, 61440
  %25 = icmp eq i32 %24, 16384
  br i1 %25, label %26, label %32

26:                                               ; preds = %7
  %27 = lshr i32 %.010.i, 2
  %28 = and i32 %27, 73
  %29 = or i32 %28, %.010.i
  %30 = and i32 %.010.i, 48
  %.not9 = icmp eq i32 %30, 0
  %31 = or i32 %29, 1024
  %spec.select = select i1 %.not9, i32 %29, i32 %31
  br label %32

32:                                               ; preds = %26, %7
  %.0 = phi i32 [ %.010.i, %7 ], [ %spec.select, %26 ]
  %33 = xor i32 %.0, %9
  %34 = and i32 %33, -61441
  %.not10 = icmp eq i32 %34, 0
  br i1 %.not10, label %39, label %35

35:                                               ; preds = %32
  %36 = and i32 %.0, -61441
  %37 = tail call i32 @chmod(ptr noundef %0, i32 noundef %36) #29
  %38 = icmp slt i32 %37, 0
  br i1 %38, label %40, label %39

39:                                               ; preds = %35, %32
  br label %40

40:                                               ; preds = %get_st_mode_bits.exit.thread, %35, %1, %39
  %.08 = phi i32 [ 0, %39 ], [ 0, %1 ], [ -2, %35 ], [ -1, %get_st_mode_bits.exit.thread ]
  ret i32 %.08
}